
ring.o:     file format elf32-i386


Disassembly of section .text:

00000000 <ring_size>:
   0:	55                   	push   %ebp
   1:	b8 00 00 04 00       	mov    $0x40000,%eax
   6:	89 e5                	mov    %esp,%ebp
   8:	5d                   	pop    %ebp
   9:	c3                   	ret    
   a:	8d b6 00 00 00 00    	lea    0x0(%esi),%esi

00000010 <ring_detach>:
  10:	55                   	push   %ebp
  11:	31 c0                	xor    %eax,%eax
  13:	89 e5                	mov    %esp,%ebp
  15:	5d                   	pop    %ebp
  16:	c3                   	ret    
  17:	89 f6                	mov    %esi,%esi
  19:	8d bc 27 00 00 00 00 	lea    0x0(%edi,%eiz,1),%edi

00000020 <ring_write_reserve>:
  20:	55                   	push   %ebp
  21:	89 e5                	mov    %esp,%ebp
  23:	83 ec 10             	sub    $0x10,%esp
  26:	8b 55 0c             	mov    0xc(%ebp),%edx
  29:	89 75 f8             	mov    %esi,-0x8(%ebp)
  2c:	8b 75 10             	mov    0x10(%ebp),%esi
  2f:	89 7d fc             	mov    %edi,-0x4(%ebp)
  32:	8b 45 08             	mov    0x8(%ebp),%eax
  35:	89 5d f4             	mov    %ebx,-0xc(%ebp)
  38:	8b 4a 04             	mov    0x4(%edx),%ecx
  3b:	ba 00 00 01 00       	mov    $0x10000,%edx
  40:	8b 99 0c 00 04 00    	mov    0x4000c(%ecx),%ebx
  46:	0f b7 fb             	movzwl %bx,%edi
  49:	29 da                	sub    %ebx,%edx
  4b:	2b 91 00 00 04 00    	sub    0x40000(%ecx),%edx
  51:	89 7d f0             	mov    %edi,-0x10(%ebp)
  54:	bf 00 00 01 00       	mov    $0x10000,%edi
  59:	2b 7d f0             	sub    -0x10(%ebp),%edi
  5c:	39 fa                	cmp    %edi,%edx
  5e:	0f 4f d7             	cmovg  %edi,%edx
  61:	83 e6 fc             	and    $0xfffffffc,%esi
  64:	39 f2                	cmp    %esi,%edx
  66:	0f 4f d6             	cmovg  %esi,%edx
  69:	8d 34 1a             	lea    (%edx,%ebx,1),%esi
  6c:	89 b1 0c 00 04 00    	mov    %esi,0x4000c(%ecx)
  72:	c1 e2 02             	shl    $0x2,%edx
  75:	8d 0c 99             	lea    (%ecx,%ebx,4),%ecx
  78:	89 48 04             	mov    %ecx,0x4(%eax)
  7b:	89 10                	mov    %edx,(%eax)
  7d:	8b 5d f4             	mov    -0xc(%ebp),%ebx
  80:	8b 75 f8             	mov    -0x8(%ebp),%esi
  83:	8b 7d fc             	mov    -0x4(%ebp),%edi
  86:	89 ec                	mov    %ebp,%esp
  88:	5d                   	pop    %ebp
  89:	c2 04 00             	ret    $0x4
  8c:	8d 74 26 00          	lea    0x0(%esi,%eiz,1),%esi

00000090 <ring_read_reserve>:
  90:	55                   	push   %ebp
  91:	89 e5                	mov    %esp,%ebp
  93:	83 ec 0c             	sub    $0xc,%esp
  96:	8b 55 0c             	mov    0xc(%ebp),%edx
  99:	89 1c 24             	mov    %ebx,(%esp)
  9c:	8b 45 08             	mov    0x8(%ebp),%eax
  9f:	89 74 24 04          	mov    %esi,0x4(%esp)
  a3:	8b 75 10             	mov    0x10(%ebp),%esi
  a6:	89 7c 24 08          	mov    %edi,0x8(%esp)
  aa:	8b 4a 04             	mov    0x4(%edx),%ecx
  ad:	83 e6 fc             	and    $0xfffffffc,%esi
  b0:	8b 99 04 00 04 00    	mov    0x40004(%ecx),%ebx
  b6:	8b 91 08 00 04 00    	mov    0x40008(%ecx),%edx
  bc:	29 da                	sub    %ebx,%edx
  be:	39 f2                	cmp    %esi,%edx
  c0:	0f 4f d6             	cmovg  %esi,%edx
  c3:	0f b7 fb             	movzwl %bx,%edi
  c6:	be 00 00 01 00       	mov    $0x10000,%esi
  cb:	29 fe                	sub    %edi,%esi
  cd:	39 f2                	cmp    %esi,%edx
  cf:	0f 4f d6             	cmovg  %esi,%edx
  d2:	8d 34 1a             	lea    (%edx,%ebx,1),%esi
  d5:	89 b1 04 00 04 00    	mov    %esi,0x40004(%ecx)
  db:	c1 e2 02             	shl    $0x2,%edx
  de:	8d 0c 99             	lea    (%ecx,%ebx,4),%ecx
  e1:	89 48 04             	mov    %ecx,0x4(%eax)
  e4:	89 10                	mov    %edx,(%eax)
  e6:	8b 1c 24             	mov    (%esp),%ebx
  e9:	8b 74 24 04          	mov    0x4(%esp),%esi
  ed:	8b 7c 24 08          	mov    0x8(%esp),%edi
  f1:	89 ec                	mov    %ebp,%esp
  f3:	5d                   	pop    %ebp
  f4:	c2 04 00             	ret    $0x4
  f7:	89 f6                	mov    %esi,%esi
  f9:	8d bc 27 00 00 00 00 	lea    0x0(%edi,%eiz,1),%edi

00000100 <ring_write>:
 100:	55                   	push   %ebp
 101:	89 e5                	mov    %esp,%ebp
 103:	5d                   	pop    %ebp
 104:	c3                   	ret    
 105:	8d 74 26 00          	lea    0x0(%esi,%eiz,1),%esi
 109:	8d bc 27 00 00 00 00 	lea    0x0(%edi,%eiz,1),%edi

00000110 <ring_read>:
 110:	55                   	push   %ebp
 111:	89 e5                	mov    %esp,%ebp
 113:	5d                   	pop    %ebp
 114:	c3                   	ret    
 115:	8d 74 26 00          	lea    0x0(%esi,%eiz,1),%esi
 119:	8d bc 27 00 00 00 00 	lea    0x0(%edi,%eiz,1),%edi

00000120 <ring_read_notify>:
 120:	55                   	push   %ebp
 121:	89 e5                	mov    %esp,%ebp
 123:	53                   	push   %ebx
 124:	83 ec 14             	sub    $0x14,%esp
 127:	8b 55 08             	mov    0x8(%ebp),%edx
 12a:	8b 45 0c             	mov    0xc(%ebp),%eax
 12d:	8b 4a 04             	mov    0x4(%edx),%ecx
 130:	83 e0 fc             	and    $0xfffffffc,%eax
 133:	8b 99 00 00 04 00    	mov    0x40000(%ecx),%ebx
 139:	8b 91 04 00 04 00    	mov    0x40004(%ecx),%edx
 13f:	29 da                	sub    %ebx,%edx
 141:	39 d0                	cmp    %edx,%eax
 143:	7f 12                	jg     157 <ring_read_notify+0x37>
 145:	c1 f8 02             	sar    $0x2,%eax
 148:	8d 1c 18             	lea    (%eax,%ebx,1),%ebx
 14b:	89 99 00 00 04 00    	mov    %ebx,0x40000(%ecx)
 151:	83 c4 14             	add    $0x14,%esp
 154:	5b                   	pop    %ebx
 155:	5d                   	pop    %ebp
 156:	c3                   	ret    
 157:	c7 44 24 04 00 00 00 	movl   $0x0,0x4(%esp)
 15e:	00 
 15f:	c7 04 24 01 00 00 00 	movl   $0x1,(%esp)
 166:	e8 fc ff ff ff       	call   167 <ring_read_notify+0x47>
 16b:	e8 fc ff ff ff       	call   16c <ring_read_notify+0x4c>

00000170 <ring_write_notify>:
 170:	55                   	push   %ebp
 171:	89 e5                	mov    %esp,%ebp
 173:	53                   	push   %ebx
 174:	83 ec 14             	sub    $0x14,%esp
 177:	8b 55 08             	mov    0x8(%ebp),%edx
 17a:	8b 45 0c             	mov    0xc(%ebp),%eax
 17d:	8b 4a 04             	mov    0x4(%edx),%ecx
 180:	83 e0 fc             	and    $0xfffffffc,%eax
 183:	8b 99 08 00 04 00    	mov    0x40008(%ecx),%ebx
 189:	8b 91 0c 00 04 00    	mov    0x4000c(%ecx),%edx
 18f:	29 da                	sub    %ebx,%edx
 191:	39 d0                	cmp    %edx,%eax
 193:	7f 12                	jg     1a7 <ring_write_notify+0x37>
 195:	c1 f8 02             	sar    $0x2,%eax
 198:	8d 1c 18             	lea    (%eax,%ebx,1),%ebx
 19b:	89 99 08 00 04 00    	mov    %ebx,0x40008(%ecx)
 1a1:	83 c4 14             	add    $0x14,%esp
 1a4:	5b                   	pop    %ebx
 1a5:	5d                   	pop    %ebp
 1a6:	c3                   	ret    
 1a7:	c7 44 24 04 34 00 00 	movl   $0x34,0x4(%esp)
 1ae:	00 
 1af:	c7 04 24 01 00 00 00 	movl   $0x1,(%esp)
 1b6:	e8 fc ff ff ff       	call   1b7 <ring_write_notify+0x47>
 1bb:	e8 fc ff ff ff       	call   1bc <ring_write_notify+0x4c>

000001c0 <ring_attach>:
 1c0:	55                   	push   %ebp
 1c1:	89 e5                	mov    %esp,%ebp
 1c3:	53                   	push   %ebx
 1c4:	83 ec 14             	sub    $0x14,%esp
 1c7:	8b 5d 08             	mov    0x8(%ebp),%ebx
 1ca:	c7 44 24 08 00 10 04 	movl   $0x41000,0x8(%esp)
 1d1:	00 
 1d2:	c7 44 24 04 00 e0 fb 	movl   $0x7fbe000,0x4(%esp)
 1d9:	07 
 1da:	89 1c 24             	mov    %ebx,(%esp)
 1dd:	e8 fc ff ff ff       	call   1de <ring_attach+0x1e>
 1e2:	89 c2                	mov    %eax,%edx
 1e4:	31 c0                	xor    %eax,%eax
 1e6:	85 d2                	test   %edx,%edx
 1e8:	79 06                	jns    1f0 <ring_attach+0x30>
 1ea:	83 c4 14             	add    $0x14,%esp
 1ed:	5b                   	pop    %ebx
 1ee:	5d                   	pop    %ebp
 1ef:	c3                   	ret    
 1f0:	c7 04 24 08 00 00 00 	movl   $0x8,(%esp)
 1f7:	e8 fc ff ff ff       	call   1f8 <ring_attach+0x38>
 1fc:	85 c0                	test   %eax,%eax
 1fe:	74 ea                	je     1ea <ring_attach+0x2a>
 200:	89 18                	mov    %ebx,(%eax)
 202:	c7 40 04 00 e0 fb 07 	movl   $0x7fbe000,0x4(%eax)
 209:	c7 05 00 e0 ff 07 00 	movl   $0x0,0x7ffe000
 210:	00 00 00 
 213:	c7 05 04 e0 ff 07 00 	movl   $0x0,0x7ffe004
 21a:	00 00 00 
 21d:	c7 05 08 e0 ff 07 00 	movl   $0x0,0x7ffe008
 224:	00 00 00 
 227:	c7 05 0c e0 ff 07 00 	movl   $0x0,0x7ffe00c
 22e:	00 00 00 
 231:	eb b7                	jmp    1ea <ring_attach+0x2a>
